Certificate:
    Data:
        Version: 3 (0x2)
        Serial Number: 306714175 (0x1248163f)
        Signature Algorithm: sha384WithRSAEncryption
        Issuer: CN=CA1_sha384_4096_65537_v3_ca
        Validity
            Not Before: Jan  9 17:24:23 2024 GMT
            Not After : Jan  4 17:24:23 2044 GMT
        Subject: CN=SRK2_sha384_4096_65537_v3_usr
        Subject Public Key Info:
            Public Key Algorithm: rsaEncryption
                Public-Key: (4096 bit)
                Modulus:
                    00:bd:3a:ae:e0:69:77:12:a5:41:f0:6c:27:8e:9c:
                    6c:55:fa:9b:32:ae:40:50:2d:c8:c2:8c:72:9e:50:
                    66:d1:59:f5:73:a2:73:0c:90:b0:77:d1:a7:c5:8e:
                    8d:e0:00:cf:c8:37:80:34:4e:ed:a3:e6:c7:0a:fe:
                    be:3e:67:48:12:ab:18:64:52:5b:cc:e3:d2:3f:fd:
                    97:45:2a:2d:a4:34:a6:f6:b6:b3:44:9c:25:e7:65:
                    d9:6c:c5:77:3f:11:fd:27:19:24:32:c3:3d:d6:f1:
                    31:51:15:2c:56:21:80:6f:d0:cb:54:ba:11:7e:6b:
                    23:f1:d9:55:55:b6:1c:4a:bb:52:3e:3d:0b:98:a2:
                    42:ca:7e:43:6e:bb:3c:c4:f6:25:c4:e8:7d:b6:bc:
                    37:d4:64:12:25:fa:79:36:90:6f:2d:39:e7:0f:6d:
                    48:d6:34:69:61:de:e2:f6:fc:84:a3:6d:6a:c1:b2:
                    9e:53:d6:90:85:45:69:fd:01:c6:2e:30:da:18:db:
                    72:98:a3:45:e8:35:6d:c7:14:0c:7e:6f:d6:af:8f:
                    85:2e:dc:15:35:42:5c:46:a0:0b:52:cd:18:2f:39:
                    5f:1c:aa:03:08:a9:1a:6a:85:fb:7e:5a:11:10:c6:
                    10:d5:04:ec:34:02:43:52:ef:8e:7c:06:8c:c2:e9:
                    a3:e0:39:ea:07:a3:d1:5d:f3:84:3d:e4:a0:57:65:
                    ed:5c:ed:0a:ae:2d:c1:a3:4f:b4:0d:65:0e:ef:06:
                    88:99:ed:be:6c:4f:b6:d6:3f:7e:a1:41:a1:17:ad:
                    e1:49:a4:72:1f:21:ce:cb:c3:62:7a:f3:c5:11:e9:
                    a9:14:f2:67:1f:87:1e:03:a6:98:0b:d5:03:4d:4c:
                    f0:5b:86:d1:56:eb:d6:f3:1a:f7:5a:a7:a4:16:5d:
                    60:6e:23:58:ae:36:48:b8:df:27:cd:e4:96:be:0a:
                    19:18:53:7c:a3:d0:3d:4a:68:b0:3c:48:cd:c1:ab:
                    b7:da:71:75:a9:61:59:ca:36:56:d1:3b:ab:44:12:
                    eb:8d:28:b0:b1:9d:7e:44:ef:d4:e7:59:84:cf:03:
                    11:ca:3a:8f:3d:80:65:a4:44:a7:17:67:c8:f7:c4:
                    0d:1f:9d:70:a1:5a:35:19:8c:0c:47:55:81:f3:a6:
                    e1:9f:e3:23:34:1d:a6:0e:67:ca:53:09:ae:a2:b2:
                    cb:1c:a9:ed:61:d7:8c:0c:e9:a5:19:ad:95:8c:85:
                    67:85:33:30:28:c1:f2:e6:4c:a1:37:f4:22:ca:26:
                    8a:fd:9e:1e:83:9b:25:d9:ea:23:e8:a8:e7:eb:ad:
                    39:d7:c4:ee:7b:ae:89:bd:7a:3a:ac:e4:5c:e7:a3:
                    e0:52:f1
                Exponent: 65537 (0x10001)
        X509v3 extensions:
            X509v3 Basic Constraints: 
                CA:FALSE
            Netscape Comment: 
                OpenSSL Generated Certificate
            X509v3 Subject Key Identifier: 
                45:F4:10:2B:4C:83:F5:C4:0D:63:FC:62:D7:5D:62:13:31:39:EE:17
            X509v3 Authority Key Identifier: 
                77:3D:13:A4:00:F5:B2:8B:FF:F6:E9:71:85:B4:48:8A:02:02:5C:96
    Signature Algorithm: sha384WithRSAEncryption
    Signature Value:
        9e:01:3f:3e:d5:af:1f:46:c4:35:25:04:80:3d:c3:4d:d6:fd:
        76:c7:47:9d:ae:59:84:f4:f0:7f:f3:6a:7e:1a:cd:bc:79:30:
        03:64:4c:51:16:ed:0e:b7:89:97:97:eb:c0:28:ff:bd:d2:37:
        7f:7d:33:c1:ed:9a:03:5a:53:98:95:1c:6b:42:6b:03:de:b6:
        e0:a7:cd:d3:e8:83:7f:9d:ef:90:40:e8:53:00:59:e0:c2:9c:
        d6:1f:94:7b:53:22:25:5a:75:04:9d:d8:00:22:7a:dc:81:db:
        b8:bb:90:b8:de:6c:94:b3:d4:d7:5a:86:a3:ea:ab:cf:f5:1f:
        a5:20:5f:00:0f:e8:08:85:e7:f4:03:e5:e6:0c:95:af:3a:0a:
        ee:08:27:82:77:bb:e0:bc:87:7b:fe:7e:9d:70:bd:82:3b:f1:
        ab:17:98:3a:ac:85:2b:e0:3b:a1:77:04:6b:75:5f:12:9c:36:
        e9:87:5d:6e:f1:db:19:ee:59:c3:e7:63:e8:d4:a8:0b:e5:3a:
        54:44:eb:65:63:e6:36:00:89:01:93:c4:f4:bd:b0:6f:f1:ae:
        24:7b:fa:32:c3:d0:9e:85:97:0d:b8:c6:46:0f:0c:6e:a6:28:
        f5:37:19:59:72:62:1b:31:91:95:75:14:e1:69:80:6c:ca:d9:
        5c:4b:1d:1a:9d:d6:c4:4c:c3:86:08:5d:12:c5:5e:93:cf:86:
        ed:17:4f:83:ca:67:9c:6f:6a:57:13:1e:dd:45:8f:e0:24:cf:
        eb:94:bf:ae:79:da:55:3f:f4:cc:fb:1b:d3:f5:88:41:be:57:
        aa:e1:23:12:3c:60:9f:92:bb:01:a3:94:b1:83:5d:35:ba:e9:
        6f:01:6c:47:9c:12:d1:5f:57:e3:23:d8:da:c2:3c:ec:d0:58:
        ab:73:0b:e6:5f:8d:eb:65:cf:25:da:2d:90:ab:86:61:cd:e7:
        d4:43:92:2e:c9:58:ee:91:d3:8c:f0:f7:9b:1a:1c:37:ed:95:
        05:21:42:a0:b5:5f:6c:22:90:d5:ed:13:83:22:c9:c8:66:b7:
        d2:a6:fd:83:e7:be:85:4d:b1:55:83:5b:6c:97:a1:cb:50:9a:
        ad:3d:f2:53:8f:37:7f:f9:52:76:5f:ab:4b:12:e5:31:46:09:
        d1:3a:59:a3:d5:ca:dc:db:7b:65:44:b2:5b:1d:2a:ed:f8:77:
        a9:69:39:38:8e:58:e6:09:74:61:b0:8d:d0:f2:e0:74:2d:d6:
        cc:cf:db:0f:82:53:15:94:00:f2:2f:8a:74:d8:fa:8e:0b:5e:
        3c:28:73:29:cf:8d:a6:9f:d9:50:d0:dd:02:3d:1e:a7:34:42:
        ac:b2:5a:f8:0e:5b:04:51
-----BEGIN CERTIFICATE-----
MIIFRzCCAy+gAwIBAgIEEkgWPzANBgkqhkiG9w0BAQwFADAmMSQwIgYDVQQDFBtD
QTFfc2hhMzg0XzQwOTZfNjU1MzdfdjNfY2EwHhcNMjQwMTA5MTcyNDIzWhcNNDQw
MTA0MTcyNDIzWjAoMSYwJAYDVQQDDB1TUksyX3NoYTM4NF80MDk2XzY1NTM3X3Yz
X3VzcjCCAiIwDQYJKoZIhvcNAQEBBQADggIPADCCAgoCggIBAL06ruBpdxKlQfBs
J46cbFX6mzKuQFAtyMKMcp5QZtFZ9XOicwyQsHfRp8WOjeAAz8g3gDRO7aPmxwr+
vj5nSBKrGGRSW8zj0j/9l0UqLaQ0pva2s0ScJedl2WzFdz8R/ScZJDLDPdbxMVEV
LFYhgG/Qy1S6EX5rI/HZVVW2HEq7Uj49C5iiQsp+Q267PMT2JcTofba8N9RkEiX6
eTaQby055w9tSNY0aWHe4vb8hKNtasGynlPWkIVFaf0Bxi4w2hjbcpijReg1bccU
DH5v1q+PhS7cFTVCXEagC1LNGC85XxyqAwipGmqF+35aERDGENUE7DQCQ1LvjnwG
jMLpo+A56gej0V3zhD3koFdl7VztCq4twaNPtA1lDu8GiJntvmxPttY/fqFBoRet
4Umkch8hzsvDYnrzxRHpqRTyZx+HHgOmmAvVA01M8FuG0Vbr1vMa91qnpBZdYG4j
WK42SLjfJ83klr4KGRhTfKPQPUposDxIzcGrt9pxdalhWco2VtE7q0QS640osLGd
fkTv1OdZhM8DEco6jz2AZaREpxdnyPfEDR+dcKFaNRmMDEdVgfOm4Z/jIzQdpg5n
ylMJrqKyyxyp7WHXjAzppRmtlYyFZ4UzMCjB8uZMoTf0Isomiv2eHoObJdnqI+io
5+utOdfE7nuuib16OqzkXOej4FLxAgMBAAGjezB5MAkGA1UdEwQCMAAwLAYJYIZI
AYb4QgENBB8WHU9wZW5TU0wgR2VuZXJhdGVkIENlcnRpZmljYXRlMB0GA1UdDgQW
BBRF9BArTIP1xA1j/GLXXWITMTnuFzAfBgNVHSMEGDAWgBR3PROkAPWyi//26XGF
tEiKAgJcljANBgkqhkiG9w0BAQwFAAOCAgEAngE/PtWvH0bENSUEgD3DTdb9dsdH
na5ZhPTwf/NqfhrNvHkwA2RMURbtDreJl5frwCj/vdI3f30zwe2aA1pTmJUca0Jr
A9624KfN0+iDf53vkEDoUwBZ4MKc1h+Ue1MiJVp1BJ3YACJ63IHbuLuQuN5slLPU
11qGo+qrz/UfpSBfAA/oCIXn9APl5gyVrzoK7ggngne74LyHe/5+nXC9gjvxqxeY
OqyFK+A7oXcEa3VfEpw26YddbvHbGe5Zw+dj6NSoC+U6VETrZWPmNgCJAZPE9L2w
b/GuJHv6MsPQnoWXDbjGRg8MbqYo9TcZWXJiGzGRlXUU4WmAbMrZXEsdGp3WxEzD
hghdEsVek8+G7RdPg8pnnG9qVxMe3UWP4CTP65S/rnnaVT/0zPsb0/WIQb5XquEj
Ejxgn5K7AaOUsYNdNbrpbwFsR5wS0V9X4yPY2sI87NBYq3ML5l+N62XPJdotkKuG
Yc3n1EOSLslY7pHTjPD3mxocN+2VBSFCoLVfbCKQ1e0TgyLJyGa30qb9g+e+hU2x
VYNbbJehy1CarT3yU483f/lSdl+rSxLlMUYJ0TpZo9XK3Nt7ZUSyWx0q7fh3qWk5
OI5Y5gl0YbCN0PLgdC3WzM/bD4JTFZQA8i+KdNj6jgtePChzKc+Npp/ZUNDdAj0e
pzRCrLJa+A5bBFE=
-----END CERTIFICATE-----
