Certificate:
    Data:
        Version: 3 (0x2)
        Serial Number: 306714176 (0x12481640)
        Signature Algorithm: sha384WithRSAEncryption
        Issuer: CN=CA1_sha384_4096_65537_v3_ca
        Validity
            Not Before: Jan  9 17:24:23 2024 GMT
            Not After : Jan  4 17:24:23 2044 GMT
        Subject: CN=SRK3_sha384_4096_65537_v3_usr
        Subject Public Key Info:
            Public Key Algorithm: rsaEncryption
                Public-Key: (4096 bit)
                Modulus:
                    00:94:a8:b1:70:59:18:df:6b:98:96:74:f5:42:89:
                    83:ce:b2:60:21:58:26:0f:28:14:8b:7a:ba:f5:f3:
                    07:0a:48:43:55:3d:7a:93:9e:d0:cb:a6:8a:a8:ca:
                    70:6d:72:c7:9a:af:35:ce:de:d9:2c:96:a0:0e:28:
                    6c:ea:ce:01:b5:c9:ec:5e:d6:cd:31:b3:8d:17:99:
                    02:66:81:e2:a4:69:80:28:87:2c:cb:59:b0:fe:ed:
                    75:8c:d0:60:50:ca:1a:67:27:f5:4c:7e:d9:09:a8:
                    1d:a0:c8:c2:21:6b:9e:32:75:c8:da:e6:77:2f:19:
                    cc:77:6a:42:17:b2:46:08:e0:5b:c1:d7:db:80:0f:
                    d2:90:4d:2d:9f:79:fc:05:4c:a3:47:bb:e9:55:6a:
                    2b:f6:e4:16:8f:1a:dc:ba:ae:8f:75:c0:8b:38:a8:
                    e8:9f:3d:84:12:9b:c7:33:9c:b1:75:bb:1c:8e:ec:
                    f9:5b:c3:eb:17:a7:66:13:04:3a:65:a7:18:54:0b:
                    82:08:ac:1f:aa:34:d7:26:5a:d2:a7:dc:27:79:0c:
                    45:74:52:18:b0:dc:f4:5d:f9:72:ed:27:eb:9e:a5:
                    14:e0:fc:85:0f:d7:87:c5:ad:23:f8:29:b6:2f:ac:
                    75:cd:b1:43:b6:6c:53:08:5e:13:17:3f:5c:b0:56:
                    f7:7d:a6:d8:16:2c:3e:a1:79:4b:95:3a:59:54:02:
                    4d:f6:d0:54:c5:c1:be:cb:65:c2:c6:0d:6c:48:09:
                    b0:2f:a0:aa:ed:f9:d3:ad:00:e9:3a:34:5e:08:c3:
                    93:d0:c9:5c:d5:c5:06:4b:ba:59:86:a1:42:4d:fa:
                    47:62:1f:e8:d4:1b:5f:ba:ea:d5:35:f3:b5:50:23:
                    e5:a8:88:53:e7:9c:52:5f:57:bf:0e:14:c1:c2:78:
                    7b:a3:47:96:1d:bf:a1:81:ed:56:19:1a:65:79:c3:
                    83:7b:f4:4b:8c:a9:92:33:7c:cb:e7:2e:53:90:25:
                    4c:7a:da:e5:8d:00:e6:07:eb:81:ad:44:5f:15:17:
                    00:15:d5:3b:2a:3f:3a:a1:f7:6e:f8:8e:ea:b7:61:
                    4c:17:6e:16:db:5c:0d:b7:1a:5d:6b:69:83:cc:f0:
                    5d:73:14:ec:c5:e3:ea:fc:02:b3:cd:a6:67:f4:61:
                    4f:fc:31:54:7e:04:a3:84:dd:b3:a6:22:2e:b5:90:
                    04:dd:b4:0f:dd:0c:7c:3b:58:17:d8:85:1e:ae:7b:
                    d0:cb:f0:7a:36:80:54:74:61:05:8c:22:a1:ca:3d:
                    4f:19:3e:2a:16:c9:15:d4:1c:b6:79:db:72:a1:7a:
                    6c:6d:3f:02:d4:44:fd:51:8e:f3:fd:da:f0:ce:03:
                    86:57:3f
                Exponent: 65537 (0x10001)
        X509v3 extensions:
            X509v3 Basic Constraints: 
                CA:FALSE
            Netscape Comment: 
                OpenSSL Generated Certificate
            X509v3 Subject Key Identifier: 
                AB:E1:26:30:00:CA:F9:3C:B7:40:41:C3:3B:E8:DF:E4:45:41:86:F6
            X509v3 Authority Key Identifier: 
                77:3D:13:A4:00:F5:B2:8B:FF:F6:E9:71:85:B4:48:8A:02:02:5C:96
    Signature Algorithm: sha384WithRSAEncryption
    Signature Value:
        65:65:5c:a2:a9:ba:ec:4b:dc:ae:35:83:83:3a:be:53:7d:f2:
        04:ef:14:57:44:2b:69:fa:8e:50:30:44:29:79:c8:0f:01:5c:
        52:12:ce:82:d2:ac:ca:f8:d2:84:c8:83:cd:82:49:81:d6:09:
        3b:2e:b6:04:28:4c:68:38:0b:b2:66:06:36:ea:9d:6c:4a:63:
        33:57:25:92:bb:6f:0b:4f:c8:20:5e:5f:bc:f1:d4:f8:71:22:
        41:05:34:9f:98:34:00:c2:4d:d3:b8:cf:52:74:99:44:0b:ac:
        fa:03:8d:0a:8e:d5:f5:52:80:63:9a:43:5a:b8:2a:36:f2:a1:
        2d:02:75:83:dd:ab:2f:81:fc:e5:5a:ee:90:f6:bf:22:16:ec:
        fd:7c:92:24:ac:53:df:0d:29:f6:14:43:7a:76:e8:fb:17:20:
        8e:e4:9b:d3:65:0e:cd:f7:88:0a:26:b7:f4:f0:e3:ee:d3:2d:
        46:22:a5:9b:d5:df:88:ab:2d:0f:34:66:1b:29:85:3c:73:8e:
        b7:be:02:04:49:69:fc:b0:54:ab:56:c9:e4:a2:c9:f6:fe:0a:
        fe:b2:75:11:23:46:64:96:16:8c:81:b2:ce:33:dc:3a:3f:1e:
        d4:90:14:e3:b8:eb:38:fd:dc:9a:5d:e9:40:87:4b:3b:62:fe:
        a8:b8:a4:ed:8f:5e:f9:9d:ec:11:f7:00:4a:9a:f8:89:9f:9d:
        ef:46:05:b4:4c:ef:8b:fc:48:40:d6:84:9e:e2:bf:14:c8:14:
        dd:26:0b:57:f9:a3:4d:1e:c2:c0:3f:36:7c:8d:75:99:92:db:
        c3:f6:3b:b3:48:e7:d0:de:df:1e:4e:d1:2b:25:ce:38:48:62:
        30:f5:ac:74:e0:f5:38:5b:55:52:3c:e6:16:9c:cb:79:c7:99:
        a8:36:d3:b2:d2:39:00:80:26:09:6a:c8:05:00:a8:8c:5e:00:
        08:95:f8:c3:a1:6c:62:83:8d:c2:12:c3:17:b0:9b:c1:11:a9:
        26:de:c3:90:b2:63:35:1c:1b:89:c3:51:ea:8a:a8:15:74:05:
        0e:6c:98:d2:80:00:d2:54:b7:57:5f:e4:d5:9a:de:da:94:17:
        79:03:8f:02:d3:ff:dd:45:e1:46:73:d7:7f:fc:75:92:de:36:
        e1:ec:a7:2c:c0:a5:57:8a:da:bc:f7:bf:58:97:9d:b6:18:8a:
        15:68:1b:c5:d0:2e:15:c3:0c:31:32:c1:de:7e:ef:f1:85:21:
        c1:15:fc:51:95:f7:3b:6d:d8:59:8c:f4:01:7c:44:f1:ca:bb:
        d6:92:85:16:32:b9:3e:70:72:7d:5a:8c:7d:1c:4f:a5:c5:95:
        0c:f2:21:cf:31:0c:0a:c3
-----BEGIN CERTIFICATE-----
MIIFRzCCAy+gAwIBAgIEEkgWQDANBgkqhkiG9w0BAQwFADAmMSQwIgYDVQQDFBtD
QTFfc2hhMzg0XzQwOTZfNjU1MzdfdjNfY2EwHhcNMjQwMTA5MTcyNDIzWhcNNDQw
MTA0MTcyNDIzWjAoMSYwJAYDVQQDDB1TUkszX3NoYTM4NF80MDk2XzY1NTM3X3Yz
X3VzcjCCAiIwDQYJKoZIhvcNAQEBBQADggIPADCCAgoCggIBAJSosXBZGN9rmJZ0
9UKJg86yYCFYJg8oFIt6uvXzBwpIQ1U9epOe0MumiqjKcG1yx5qvNc7e2SyWoA4o
bOrOAbXJ7F7WzTGzjReZAmaB4qRpgCiHLMtZsP7tdYzQYFDKGmcn9Ux+2QmoHaDI
wiFrnjJ1yNrmdy8ZzHdqQheyRgjgW8HX24AP0pBNLZ95/AVMo0e76VVqK/bkFo8a
3Lquj3XAizio6J89hBKbxzOcsXW7HI7s+VvD6xenZhMEOmWnGFQLggisH6o01yZa
0qfcJ3kMRXRSGLDc9F35cu0n656lFOD8hQ/Xh8WtI/gpti+sdc2xQ7ZsUwheExc/
XLBW932m2BYsPqF5S5U6WVQCTfbQVMXBvstlwsYNbEgJsC+gqu35060A6To0XgjD
k9DJXNXFBku6WYahQk36R2If6NQbX7rq1TXztVAj5aiIU+ecUl9Xvw4UwcJ4e6NH
lh2/oYHtVhkaZXnDg3v0S4ypkjN8y+cuU5AlTHra5Y0A5gfrga1EXxUXABXVOyo/
OqH3bviO6rdhTBduFttcDbcaXWtpg8zwXXMU7MXj6vwCs82mZ/RhT/wxVH4Eo4Td
s6YiLrWQBN20D90MfDtYF9iFHq570MvwejaAVHRhBYwioco9Txk+KhbJFdQctnnb
cqF6bG0/AtRE/VGO8/3a8M4Dhlc/AgMBAAGjezB5MAkGA1UdEwQCMAAwLAYJYIZI
AYb4QgENBB8WHU9wZW5TU0wgR2VuZXJhdGVkIENlcnRpZmljYXRlMB0GA1UdDgQW
BBSr4SYwAMr5PLdAQcM76N/kRUGG9jAfBgNVHSMEGDAWgBR3PROkAPWyi//26XGF
tEiKAgJcljANBgkqhkiG9w0BAQwFAAOCAgEAZWVcoqm67EvcrjWDgzq+U33yBO8U
V0QrafqOUDBEKXnIDwFcUhLOgtKsyvjShMiDzYJJgdYJOy62BChMaDgLsmYGNuqd
bEpjM1clkrtvC0/IIF5fvPHU+HEiQQU0n5g0AMJN07jPUnSZRAus+gONCo7V9VKA
Y5pDWrgqNvKhLQJ1g92rL4H85VrukPa/Ihbs/XySJKxT3w0p9hRDenbo+xcgjuSb
02UOzfeICia39PDj7tMtRiKlm9XfiKstDzRmGymFPHOOt74CBElp/LBUq1bJ5KLJ
9v4K/rJ1ESNGZJYWjIGyzjPcOj8e1JAU47jrOP3cml3pQIdLO2L+qLik7Y9e+Z3s
EfcASpr4iZ+d70YFtEzvi/xIQNaEnuK/FMgU3SYLV/mjTR7CwD82fI11mZLbw/Y7
s0jn0N7fHk7RKyXOOEhiMPWsdOD1OFtVUjzmFpzLeceZqDbTstI5AIAmCWrIBQCo
jF4ACJX4w6FsYoONwhLDF7CbwRGpJt7DkLJjNRwbicNR6oqoFXQFDmyY0oAA0lS3
V1/k1Zre2pQXeQOPAtP/3UXhRnPXf/x1kt424eynLMClV4ravPe/WJedthiKFWgb
xdAuFcMMMTLB3n7v8YUhwRX8UZX3O23YWYz0AXxE8cq71pKFFjK5PnByfVqMfRxP
pcWVDPIhzzEMCsM=
-----END CERTIFICATE-----
