Certificate:
    Data:
        Version: 3 (0x2)
        Serial Number: 306714174 (0x1248163e)
        Signature Algorithm: sha384WithRSAEncryption
        Issuer: CN=CA1_sha384_4096_65537_v3_ca
        Validity
            Not Before: Jan  9 17:24:22 2024 GMT
            Not After : Jan  4 17:24:22 2044 GMT
        Subject: CN=SRK1_sha384_4096_65537_v3_usr
        Subject Public Key Info:
            Public Key Algorithm: rsaEncryption
                Public-Key: (4096 bit)
                Modulus:
                    00:a9:92:d1:72:1a:c9:50:67:81:18:48:64:05:3f:
                    21:df:4f:1c:9c:89:b0:b8:7c:7c:4b:cd:87:8c:b9:
                    1e:2b:7d:b8:d9:b8:b6:d3:c1:f6:e5:02:f3:7d:57:
                    37:be:9d:0e:99:9d:5f:d4:2e:6f:c6:dc:ba:2b:31:
                    d0:ee:bb:92:c7:27:0c:f3:b9:80:4a:d9:3f:37:40:
                    61:25:44:15:d5:3c:df:22:17:f7:65:5a:70:06:91:
                    e6:44:cc:5d:ca:96:da:c4:94:ae:5c:3c:77:dd:31:
                    58:c3:e5:12:a6:19:ce:71:d0:cf:a7:c8:ae:97:08:
                    46:3a:26:b7:e5:61:4c:da:1f:94:0f:ae:93:a5:07:
                    55:f9:95:a8:f7:ab:12:82:02:99:ed:c3:60:69:ad:
                    59:fd:90:29:14:87:bd:0e:8b:77:b0:5a:59:5b:d7:
                    e7:b5:7f:83:71:24:3c:7c:6c:f1:42:d8:75:dd:a3:
                    01:04:ad:43:a4:13:da:20:d1:e9:03:97:93:36:5d:
                    7c:40:77:b3:0b:b6:76:58:f2:4d:84:0b:ad:1c:28:
                    92:79:3f:e4:d8:b6:ac:e4:cd:51:4e:7f:8a:4e:64:
                    90:6d:19:a2:82:02:a9:78:8e:af:d6:df:68:16:ac:
                    d0:4c:8a:6c:00:8e:3a:08:35:db:31:20:19:86:78:
                    e0:85:70:0e:6c:48:ad:03:db:42:50:55:02:51:37:
                    24:d1:15:81:f1:78:ff:33:51:51:d8:5c:2d:29:f5:
                    cb:32:55:2f:6c:11:cf:03:cc:71:6f:cc:4b:9a:4b:
                    22:87:ac:82:86:ca:4e:a8:2b:51:6a:e7:ac:b1:cd:
                    38:69:20:29:7c:cd:b6:98:26:21:6f:37:47:4c:9b:
                    ce:2d:13:20:ef:07:ca:d8:99:1b:98:fc:ab:4d:6a:
                    fc:fa:54:15:7d:6b:d9:3c:b2:16:64:a8:97:64:c4:
                    8a:af:c8:b1:fe:29:75:b9:1e:c1:eb:80:0b:f1:da:
                    9f:42:86:d7:dd:97:13:e0:51:92:d2:91:7c:d4:cb:
                    93:a7:9f:d7:8b:32:0e:9a:51:71:c8:d7:e3:52:9e:
                    65:b0:b9:6a:c1:83:40:97:31:ba:89:ee:a2:ec:22:
                    60:2e:6e:16:fb:f8:ba:0c:6a:2b:68:0c:5b:eb:f9:
                    37:a2:ce:7b:81:c6:af:c3:d6:6c:7d:e4:de:1e:cc:
                    3e:01:cf:3b:a6:55:c4:a7:7a:15:40:eb:3e:16:ca:
                    4e:00:6c:53:29:80:b9:aa:47:b1:f3:58:d8:d8:82:
                    f2:81:41:aa:b2:d1:9e:0d:34:b7:31:ab:a3:0b:98:
                    53:6b:f2:66:54:0d:07:99:85:02:5b:fe:67:0c:fd:
                    5b:ad:9d
                Exponent: 65537 (0x10001)
        X509v3 extensions:
            X509v3 Basic Constraints: 
                CA:FALSE
            Netscape Comment: 
                OpenSSL Generated Certificate
            X509v3 Subject Key Identifier: 
                F0:85:A8:12:DF:16:7E:56:EB:63:D0:52:8C:7B:76:37:E6:70:E7:F2
            X509v3 Authority Key Identifier: 
                77:3D:13:A4:00:F5:B2:8B:FF:F6:E9:71:85:B4:48:8A:02:02:5C:96
    Signature Algorithm: sha384WithRSAEncryption
    Signature Value:
        45:a2:eb:73:97:33:ff:b3:6c:d0:b9:9b:5f:b5:47:e1:b2:b9:
        b2:7b:44:90:d1:d3:dd:73:9e:c6:f1:ac:62:27:d7:12:77:13:
        4b:73:7f:2f:8b:b8:16:b6:35:07:33:9d:98:40:da:7c:ba:60:
        71:a1:1c:65:0b:bd:eb:43:57:0f:a1:da:9a:04:4b:90:91:ce:
        7d:b3:4b:18:74:f5:87:20:a3:86:fa:6e:96:12:a0:13:3d:dd:
        8e:4a:02:22:b9:25:bf:f0:f1:f9:e7:94:3a:d9:c2:6a:09:ca:
        82:ae:3a:5b:bc:b7:dd:61:db:b7:1e:0b:ac:e1:24:c9:9a:1f:
        6c:14:44:8f:64:ad:5d:04:12:27:ca:da:22:00:a7:08:2e:85:
        59:1b:c6:15:26:27:cc:5a:a5:e3:03:9c:96:a7:e6:3a:85:0f:
        24:f6:b9:d5:b4:2f:2b:9f:3a:be:13:90:93:cb:18:bb:e8:36:
        d8:9f:df:b5:8e:1a:8b:ff:fa:4d:04:44:db:f7:30:87:d9:4d:
        f6:f0:43:e6:9b:01:23:f5:36:aa:b7:f2:f5:f5:db:8e:d3:ec:
        54:3f:6b:5c:de:a1:e9:ec:59:ac:e6:5c:e7:45:4a:96:29:3e:
        8c:59:bc:a1:15:d6:b5:8b:44:8c:6a:3e:ba:c7:f8:42:83:24:
        97:eb:33:f0:f3:62:ab:67:0e:06:35:55:e6:6a:f1:11:c0:e8:
        f3:3f:8f:5e:55:eb:f6:1d:b5:95:b1:b1:35:45:0a:bc:95:27:
        10:de:ff:c1:2a:ab:72:c7:01:8f:13:7c:54:99:36:04:47:8a:
        a7:6d:6e:b4:ec:00:d2:74:76:95:b2:ca:73:2a:59:c2:45:bb:
        68:8c:ff:73:ef:69:69:39:01:6e:67:68:32:d7:2f:61:1c:12:
        8e:8f:f5:12:66:40:51:7c:59:af:c0:07:24:00:86:1f:c8:58:
        ef:e4:1e:6f:b2:61:a0:90:7d:a1:da:e8:9f:21:bc:bf:66:c7:
        34:e9:25:f0:d4:34:91:3d:df:67:77:85:63:26:e2:08:d2:04:
        91:2e:2e:9b:18:4f:b5:b5:1f:07:5a:d3:38:1f:9b:5d:23:02:
        d4:0d:6d:b1:c9:23:07:7b:e2:54:84:6e:16:41:5e:8a:33:5e:
        b5:24:ef:53:1c:1f:7f:12:06:93:c3:54:93:2c:a9:9f:15:9a:
        2e:9d:86:e3:12:82:85:96:4d:03:c3:ba:c5:1a:10:a9:b1:c1:
        44:79:c1:14:a9:9f:05:a9:d2:42:98:32:aa:71:ec:df:18:99:
        9d:ca:82:29:23:74:92:d3:af:5c:87:a6:13:64:ef:30:fb:e6:
        da:dd:3c:15:e4:4d:6c:88
-----BEGIN CERTIFICATE-----
MIIFRzCCAy+gAwIBAgIEEkgWPjANBgkqhkiG9w0BAQwFADAmMSQwIgYDVQQDFBtD
QTFfc2hhMzg0XzQwOTZfNjU1MzdfdjNfY2EwHhcNMjQwMTA5MTcyNDIyWhcNNDQw
MTA0MTcyNDIyWjAoMSYwJAYDVQQDDB1TUksxX3NoYTM4NF80MDk2XzY1NTM3X3Yz
X3VzcjCCAiIwDQYJKoZIhvcNAQEBBQADggIPADCCAgoCggIBAKmS0XIayVBngRhI
ZAU/Id9PHJyJsLh8fEvNh4y5Hit9uNm4ttPB9uUC831XN76dDpmdX9Qub8bcuisx
0O67kscnDPO5gErZPzdAYSVEFdU83yIX92VacAaR5kTMXcqW2sSUrlw8d90xWMPl
EqYZznHQz6fIrpcIRjomt+VhTNoflA+uk6UHVfmVqPerEoICme3DYGmtWf2QKRSH
vQ6Ld7BaWVvX57V/g3EkPHxs8ULYdd2jAQStQ6QT2iDR6QOXkzZdfEB3swu2dljy
TYQLrRwoknk/5Ni2rOTNUU5/ik5kkG0ZooICqXiOr9bfaBas0EyKbACOOgg12zEg
GYZ44IVwDmxIrQPbQlBVAlE3JNEVgfF4/zNRUdhcLSn1yzJVL2wRzwPMcW/MS5pL
IoesgobKTqgrUWrnrLHNOGkgKXzNtpgmIW83R0ybzi0TIO8HytiZG5j8q01q/PpU
FX1r2TyyFmSol2TEiq/Isf4pdbkeweuAC/Han0KG192XE+BRktKRfNTLk6ef14sy
DppRccjX41KeZbC5asGDQJcxuonuouwiYC5uFvv4ugxqK2gMW+v5N6LOe4HGr8PW
bH3k3h7MPgHPO6ZVxKd6FUDrPhbKTgBsUymAuapHsfNY2NiC8oFBqrLRng00tzGr
owuYU2vyZlQNB5mFAlv+Zwz9W62dAgMBAAGjezB5MAkGA1UdEwQCMAAwLAYJYIZI
AYb4QgENBB8WHU9wZW5TU0wgR2VuZXJhdGVkIENlcnRpZmljYXRlMB0GA1UdDgQW
BBTwhagS3xZ+Vutj0FKMe3Y35nDn8jAfBgNVHSMEGDAWgBR3PROkAPWyi//26XGF
tEiKAgJcljANBgkqhkiG9w0BAQwFAAOCAgEARaLrc5cz/7Ns0LmbX7VH4bK5sntE
kNHT3XOexvGsYifXEncTS3N/L4u4FrY1BzOdmEDafLpgcaEcZQu960NXD6HamgRL
kJHOfbNLGHT1hyCjhvpulhKgEz3djkoCIrklv/Dx+eeUOtnCagnKgq46W7y33WHb
tx4LrOEkyZofbBREj2StXQQSJ8raIgCnCC6FWRvGFSYnzFql4wOclqfmOoUPJPa5
1bQvK586vhOQk8sYu+g22J/ftY4ai//6TQRE2/cwh9lN9vBD5psBI/U2qrfy9fXb
jtPsVD9rXN6h6exZrOZc50VKlik+jFm8oRXWtYtEjGo+usf4QoMkl+sz8PNiq2cO
BjVV5mrxEcDo8z+PXlXr9h21lbGxNUUKvJUnEN7/wSqrcscBjxN8VJk2BEeKp21u
tOwA0nR2lbLKcypZwkW7aIz/c+9paTkBbmdoMtcvYRwSjo/1EmZAUXxZr8AHJACG
H8hY7+Qeb7JhoJB9odronyG8v2bHNOkl8NQ0kT3fZ3eFYybiCNIEkS4umxhPtbUf
B1rTOB+bXSMC1A1tsckjB3viVIRuFkFeijNetSTvUxwffxIGk8NUkyypnxWaLp2G
4xKChZZNA8O6xRoQqbHBRHnBFKmfBanSQpgyqnHs3xiZncqCKSN0ktOvXIemE2Tv
MPvm2t08FeRNbIg=
-----END CERTIFICATE-----
