Certificate:
    Data:
        Version: 3 (0x2)
        Serial Number: 306714177 (0x12481641)
        Signature Algorithm: sha384WithRSAEncryption
        Issuer: CN=CA1_sha384_4096_65537_v3_ca
        Validity
            Not Before: Jan  9 17:24:23 2024 GMT
            Not After : Jan  4 17:24:23 2044 GMT
        Subject: CN=SRK4_sha384_4096_65537_v3_usr
        Subject Public Key Info:
            Public Key Algorithm: rsaEncryption
                Public-Key: (4096 bit)
                Modulus:
                    00:cd:a6:0e:a0:72:da:75:2e:33:aa:1d:cb:89:53:
                    41:07:e8:65:81:54:58:2a:ea:60:64:ef:96:ce:e8:
                    2b:eb:d5:24:71:16:db:20:8d:98:66:59:eb:01:65:
                    00:58:55:c3:53:d3:80:4a:ca:05:cf:19:54:eb:54:
                    9b:67:35:82:10:02:46:b8:42:92:c4:02:d4:92:e9:
                    8b:2e:0e:25:4a:60:19:69:cf:36:12:62:d5:b3:3c:
                    f1:af:ef:4f:9a:70:f0:76:dd:28:fc:6b:40:b2:aa:
                    13:62:c1:37:7d:b0:55:6d:d4:63:ab:75:2e:b8:66:
                    71:ca:e2:65:eb:ce:a0:57:bf:be:57:50:c9:a0:93:
                    da:15:db:8f:66:e2:30:56:0c:70:29:7f:21:7d:f6:
                    d4:d2:8e:82:27:6d:fb:25:52:48:fb:9e:3b:70:b4:
                    0e:60:be:7e:18:cb:af:93:1d:12:7d:0b:2a:b0:9f:
                    ca:68:83:a2:15:c8:b0:2e:9c:26:8c:75:84:58:ac:
                    c7:3b:a4:ad:60:38:dd:5b:b1:a7:fc:a1:96:7c:11:
                    5b:98:fe:f2:52:4a:7c:da:7c:30:81:f3:d1:ed:0a:
                    01:82:27:3c:98:e8:0e:e4:a1:7b:91:39:af:e6:fb:
                    6e:c5:12:47:26:64:f3:4f:63:b6:6d:23:6f:a0:12:
                    56:08:cd:16:0b:b3:47:dc:d8:95:83:c3:34:c1:c1:
                    a3:f2:61:c6:39:26:09:84:4f:bc:8b:e5:3c:0c:13:
                    0b:c1:23:0b:ab:dd:34:9b:89:b3:0f:db:30:ae:49:
                    c8:54:28:a3:70:3b:6e:46:7a:2f:68:c0:65:be:24:
                    73:9d:9b:1d:06:48:f1:aa:d3:33:2b:d2:32:33:5b:
                    95:4f:cc:fa:72:93:ad:6c:78:25:22:7e:52:1b:71:
                    bc:f0:7b:ad:24:73:24:f3:18:bd:aa:af:85:ca:17:
                    4c:92:be:58:0c:73:7a:7d:10:89:58:ed:c4:c4:e2:
                    6b:7d:9e:75:6d:b7:e4:50:01:27:c7:0b:d9:8a:60:
                    3f:c5:27:be:20:cb:13:66:ea:c0:65:6a:d7:06:d1:
                    c1:24:4d:b8:7d:ce:89:b6:73:da:72:5b:7f:93:ac:
                    42:2d:5b:f6:c5:a0:f0:f6:83:a6:5e:52:02:15:98:
                    7c:db:3d:ae:b9:c8:ab:1f:82:90:d9:ca:a8:26:0f:
                    56:06:e4:eb:75:c8:cc:8b:fa:6d:d9:a4:88:8b:a8:
                    1b:5a:ee:99:80:3c:60:13:19:09:76:bd:53:c6:a9:
                    57:ec:d4:7d:9b:ed:84:2d:ad:98:d6:e9:e7:b8:d7:
                    ec:60:a9:3a:6f:6c:79:e3:bb:71:e4:b0:c4:eb:7e:
                    ed:5e:f3
                Exponent: 65537 (0x10001)
        X509v3 extensions:
            X509v3 Basic Constraints: 
                CA:FALSE
            Netscape Comment: 
                OpenSSL Generated Certificate
            X509v3 Subject Key Identifier: 
                2A:4B:8B:76:2A:D1:98:FE:85:A4:63:2B:04:28:09:6F:A2:16:70:68
            X509v3 Authority Key Identifier: 
                77:3D:13:A4:00:F5:B2:8B:FF:F6:E9:71:85:B4:48:8A:02:02:5C:96
    Signature Algorithm: sha384WithRSAEncryption
    Signature Value:
        c0:a1:d4:fa:72:47:92:75:e0:7a:2e:a2:c9:1e:ac:70:32:51:
        b4:01:09:31:5c:b2:56:d4:50:a4:2b:3a:18:5f:ea:2b:c7:20:
        bf:e5:2c:20:ea:05:71:46:36:5b:a4:c3:30:7b:5e:38:db:fa:
        92:08:69:d6:9c:e4:1b:97:89:8c:ec:8e:57:9e:d3:ab:a3:ac:
        c0:e4:50:12:49:e7:1b:5a:9e:64:7e:4b:cf:f3:f2:b0:fb:47:
        4e:1f:e2:7a:47:05:e2:83:6c:ef:0e:1e:b6:aa:8f:1f:e6:e7:
        4f:b6:0a:fd:d3:14:4e:5d:35:30:46:4b:a4:70:99:e6:54:6c:
        6e:5e:c3:c5:3a:90:f1:da:58:7b:80:da:d1:98:09:46:75:3e:
        50:df:87:c1:77:75:50:d4:a0:ae:0d:d4:a7:f3:b6:d6:6a:6f:
        b7:7d:81:10:36:23:80:08:62:69:76:d4:60:0b:42:04:58:20:
        a6:28:b5:8a:2a:8a:47:ec:a4:98:d5:b7:ec:82:79:7c:35:bd:
        48:56:c2:2b:e2:02:d5:83:cc:cb:f9:b2:ea:34:87:1a:1c:f7:
        8c:53:d9:8e:49:60:1f:81:d2:c2:a4:69:cc:a5:b1:9f:0f:bf:
        c3:c7:07:05:bf:1c:df:7c:d1:0c:ec:e1:16:2d:76:f9:13:c4:
        ab:70:6a:50:a5:9b:9d:78:aa:d6:5c:be:b7:8e:22:e8:6f:95:
        57:df:3b:ea:bf:d6:92:bc:50:5b:26:df:96:85:6c:bb:c6:ce:
        f9:0d:f9:ce:9a:83:20:d4:30:2d:fb:af:ed:8f:ef:e9:ee:fe:
        1a:43:0e:68:e3:48:f0:0b:df:3e:fc:77:02:b6:62:35:9d:24:
        01:49:ca:fd:86:80:94:5f:57:83:5d:d0:ec:59:a7:5e:3e:90:
        6c:34:a9:53:67:07:0f:da:95:e9:9c:ef:f4:1d:da:ac:30:20:
        c0:d5:c2:b0:eb:97:52:13:0b:2e:9c:15:6e:81:6f:e2:0b:1f:
        48:04:72:ee:62:e2:79:ac:f4:a0:94:d4:93:9d:1e:a6:67:8c:
        74:92:9d:56:e1:f5:5a:69:8e:24:70:ca:66:80:5a:be:4f:63:
        83:84:fc:55:59:e1:25:17:a0:77:e5:c2:d4:c9:8b:b4:07:e0:
        5f:1f:1b:06:f0:ca:88:cd:fb:31:cf:49:4a:e6:96:ed:15:cc:
        ed:91:72:a8:92:3f:8e:7d:4e:9f:2c:4d:1e:4e:11:6f:fe:16:
        28:53:eb:89:fd:1d:dd:d1:88:09:c7:8f:d3:c4:7d:c0:b8:59:
        7a:c8:82:b2:69:2f:bd:34:3d:66:b0:89:1e:c9:0d:ba:a7:27:
        36:a8:88:78:a8:d1:9f:81
-----BEGIN CERTIFICATE-----
MIIFRzCCAy+gAwIBAgIEEkgWQTANBgkqhkiG9w0BAQwFADAmMSQwIgYDVQQDFBtD
QTFfc2hhMzg0XzQwOTZfNjU1MzdfdjNfY2EwHhcNMjQwMTA5MTcyNDIzWhcNNDQw
MTA0MTcyNDIzWjAoMSYwJAYDVQQDDB1TUks0X3NoYTM4NF80MDk2XzY1NTM3X3Yz
X3VzcjCCAiIwDQYJKoZIhvcNAQEBBQADggIPADCCAgoCggIBAM2mDqBy2nUuM6od
y4lTQQfoZYFUWCrqYGTvls7oK+vVJHEW2yCNmGZZ6wFlAFhVw1PTgErKBc8ZVOtU
m2c1ghACRrhCksQC1JLpiy4OJUpgGWnPNhJi1bM88a/vT5pw8HbdKPxrQLKqE2LB
N32wVW3UY6t1LrhmccriZevOoFe/vldQyaCT2hXbj2biMFYMcCl/IX321NKOgidt
+yVSSPueO3C0DmC+fhjLr5MdEn0LKrCfymiDohXIsC6cJox1hFisxzukrWA43Vux
p/yhlnwRW5j+8lJKfNp8MIHz0e0KAYInPJjoDuShe5E5r+b7bsUSRyZk809jtm0j
b6ASVgjNFguzR9zYlYPDNMHBo/JhxjkmCYRPvIvlPAwTC8EjC6vdNJuJsw/bMK5J
yFQoo3A7bkZ6L2jAZb4kc52bHQZI8arTMyvSMjNblU/M+nKTrWx4JSJ+UhtxvPB7
rSRzJPMYvaqvhcoXTJK+WAxzen0QiVjtxMTia32edW235FABJ8cL2YpgP8UnviDL
E2bqwGVq1wbRwSRNuH3OibZz2nJbf5OsQi1b9sWg8PaDpl5SAhWYfNs9rrnIqx+C
kNnKqCYPVgbk63XIzIv6bdmkiIuoG1rumYA8YBMZCXa9U8apV+zUfZvthC2tmNbp
57jX7GCpOm9seeO7ceSwxOt+7V7zAgMBAAGjezB5MAkGA1UdEwQCMAAwLAYJYIZI
AYb4QgENBB8WHU9wZW5TU0wgR2VuZXJhdGVkIENlcnRpZmljYXRlMB0GA1UdDgQW
BBQqS4t2KtGY/oWkYysEKAlvohZwaDAfBgNVHSMEGDAWgBR3PROkAPWyi//26XGF
tEiKAgJcljANBgkqhkiG9w0BAQwFAAOCAgEAwKHU+nJHknXgei6iyR6scDJRtAEJ
MVyyVtRQpCs6GF/qK8cgv+UsIOoFcUY2W6TDMHteONv6kghp1pzkG5eJjOyOV57T
q6OswORQEknnG1qeZH5Lz/PysPtHTh/iekcF4oNs7w4etqqPH+bnT7YK/dMUTl01
MEZLpHCZ5lRsbl7DxTqQ8dpYe4Da0ZgJRnU+UN+HwXd1UNSgrg3Up/O21mpvt32B
EDYjgAhiaXbUYAtCBFggpii1iiqKR+ykmNW37IJ5fDW9SFbCK+IC1YPMy/my6jSH
Ghz3jFPZjklgH4HSwqRpzKWxnw+/w8cHBb8c33zRDOzhFi12+RPEq3BqUKWbnXiq
1ly+t44i6G+VV9876r/WkrxQWybfloVsu8bO+Q35zpqDINQwLfuv7Y/v6e7+GkMO
aONI8AvfPvx3ArZiNZ0kAUnK/YaAlF9Xg13Q7FmnXj6QbDSpU2cHD9qV6Zzv9B3a
rDAgwNXCsOuXUhMLLpwVboFv4gsfSARy7mLieaz0oJTUk50epmeMdJKdVuH1WmmO
JHDKZoBavk9jg4T8VVnhJRegd+XC1MmLtAfgXx8bBvDKiM37Mc9JSuaW7RXM7ZFy
qJI/jn1OnyxNHk4Rb/4WKFPrif0d3dGICceP08R9wLhZesiCsmkvvTQ9ZrCJHskN
uqcnNqiIeKjRn4E=
-----END CERTIFICATE-----
